target datalayout = "e-m:e-p270:32:32-p271:32:32-p272:64:64-i64:64-i128:128-f80:128-n8:16:32:64-S128"
target triple = "x86_64-pc-linux-gnu"

@hf_affected_point_code_mask = internal global i32 0, align 4
@hf_affected_point_code_pc = internal global i32 0, align 4
@.str.342 = private unnamed_addr constant [1 x i8] zeroinitializer, align 1
@.str.343 = private unnamed_addr constant [2 x i8] c"s\00", align 1
@.str.344 = private unnamed_addr constant [6 x i8] c" (%s)\00", align 1
@.str.345 = private unnamed_addr constant [20 x i8] c" (%u destination%s)\00", align 1

; Function Attrs: null_pointer_is_valid sspstrong uwtable
define internal void @dissect_affected_destinations_parameter(ptr noundef %0, ptr noundef %1, ptr noundef %2) #0 {
  %4 = alloca ptr, align 8
  %5 = alloca ptr, align 8
  %6 = alloca ptr, align 8
  %7 = alloca i16, align 2
  %8 = alloca i16, align 2
  %9 = alloca i32, align 4
  %10 = alloca ptr, align 8
  store ptr %0, ptr %4, align 8
  store ptr %1, ptr %5, align 8
  store ptr %2, ptr %6, align 8
  call void @llvm.lifetime.start.p0(i64 2, ptr %7) #6
  call void @llvm.lifetime.start.p0(i64 2, ptr %8) #6
  call void @llvm.lifetime.start.p0(i64 4, ptr %9) #6
  call void @llvm.lifetime.start.p0(i64 8, ptr %10) #6
  %11 = load ptr, ptr %4, align 8
  %12 = call zeroext i16 @tvb_get_ntohs(ptr noundef %11, i32 noundef 2)
  %13 = zext i16 %12 to i32
  %14 = sub i32 %13, 4
  %15 = ashr i32 %14, 2
  %16 = trunc i32 %15 to i16
  store i16 %16, ptr %7, align 2
  store i32 4, ptr %9, align 4
  store i16 0, ptr %8, align 2
  br label %17

17:                                               ; preds = %47, %3
  %18 = load i16, ptr %8, align 2
  %19 = zext i16 %18 to i32
  %20 = load i16, ptr %7, align 2
  %21 = zext i16 %20 to i32
  %22 = icmp slt i32 %19, %21
  br i1 %22, label %23, label %50

23:                                               ; preds = %17
  %24 = load ptr, ptr %5, align 8
  %25 = load i32, ptr @hf_affected_point_code_mask, align 4
  %26 = load ptr, ptr %4, align 8
  %27 = load i32, ptr %9, align 4
  %28 = add i32 %27, 0
  %29 = call ptr @proto_tree_add_item(ptr noundef %24, i32 noundef %25, ptr noundef %26, i32 noundef %28, i32 noundef 1, i32 noundef 0)
  %30 = load ptr, ptr %5, align 8
  %31 = load i32, ptr @hf_affected_point_code_pc, align 4
  %32 = load ptr, ptr %4, align 8
  %33 = load i32, ptr %9, align 4
  %34 = add i32 %33, 1
  %35 = call ptr @proto_tree_add_item(ptr noundef %30, i32 noundef %31, ptr noundef %32, i32 noundef %34, i32 noundef 3, i32 noundef 0)
  store ptr %35, ptr %10, align 8
  %36 = call zeroext i1 @mtp3_pc_structured()
  br i1 %36, label %37, label %44

37:                                               ; preds = %23
  %38 = load ptr, ptr %10, align 8
  %39 = load ptr, ptr %4, align 8
  %40 = load i32, ptr %9, align 4
  %41 = add i32 %40, 1
  %42 = call i32 @tvb_get_ntoh24(ptr noundef %39, i32 noundef %41)
  %43 = call ptr @mtp3_pc_to_str(i32 noundef %42)
  call void (ptr, ptr, ...) @proto_item_append_text(ptr noundef %38, ptr noundef @.str.344, ptr noundef %43)
  br label %44

44:                                               ; preds = %37, %23
  %45 = load i32, ptr %9, align 4
  %46 = add i32 %45, 4
  store i32 %46, ptr %9, align 4
  br label %47

47:                                               ; preds = %44
  %48 = load i16, ptr %8, align 2
  %49 = add i16 %48, 1
  store i16 %49, ptr %8, align 2
  br label %17, !llvm.loop !10

50:                                               ; preds = %17
  %51 = load ptr, ptr %6, align 8
  %52 = load i16, ptr %7, align 2
  %53 = zext i16 %52 to i32
  %54 = load i16, ptr %7, align 2
  %55 = zext i16 %54 to i32
  %56 = icmp eq i32 %55, 1
  %57 = select i1 %56, ptr @.str.342, ptr @.str.343
  call void (ptr, ptr, ...) @proto_item_append_text(ptr noundef %51, ptr noundef @.str.345, i32 noundef %53, ptr noundef %57)
  call void @llvm.lifetime.end.p0(i64 8, ptr %10) #6
  call void @llvm.lifetime.end.p0(i64 4, ptr %9) #6
  call void @llvm.lifetime.end.p0(i64 2, ptr %8) #6
  call void @llvm.lifetime.end.p0(i64 2, ptr %7) #6
  ret void
}